Certificate:
    Data:
        Version: 1 (0x0)
        Serial Number: 71 (0x47)
        Signature Algorithm: md5WithRSAEncryption
        Issuer: C=SG, ST=Some-State, O=SUTD, OU=ISTD, CN=Liang Shuailong/emailAddress=liangshuailong@gmail.com
        Validity
            Not Before: Apr  7 04:35:13 2017 GMT
            Not After : Apr  7 04:35:13 2018 GMT
        Subject: C=SG, ST=Singapore, L=Singapore, O=SUTD, OU=ISTD, CN=Pinardy/emailAddress=pinardy_yang@mymail.sutd.edu.sg
        Subject Public Key Info:
            Public Key Algorithm: rsaEncryption
            RSA Public Key: (1024 bit)
                Modulus (1024 bit):
                    00:b2:4c:94:ec:9a:c6:12:e6:bf:09:bd:e3:b4:32:
                    8d:99:13:43:13:74:fb:4f:f0:96:9e:4f:b0:6a:18:
                    8d:80:ec:ed:d4:62:68:0f:b5:e5:1e:28:9c:d5:ee:
                    b9:08:f3:e5:0a:34:86:e2:4d:36:7f:04:4d:14:a1:
                    6a:95:1d:1b:45:05:68:e3:98:79:69:6c:6d:db:43:
                    bc:f2:74:c0:96:78:97:dc:09:d2:6e:50:31:f5:28:
                    72:2a:80:92:fa:80:da:64:4d:4c:82:c1:01:20:95:
                    be:09:86:88:3d:dc:27:fa:2d:2e:6b:94:3a:95:00:
                    43:56:b9:cf:79:1f:4c:17:0d
                Exponent: 65537 (0x10001)
    Signature Algorithm: md5WithRSAEncryption
        92:69:ed:0b:ec:fc:29:64:1c:3b:61:ba:e9:2c:d2:63:bc:d1:
        b7:07:32:78:38:64:20:47:5d:27:7d:b9:d1:66:51:16:34:e1:
        9c:5c:85:98:7d:9d:1c:4b:44:66:00:c4:1f:9b:dc:a2:a9:49:
        6e:82:6a:e2:73:7b:5b:a3:a5:a5:c1:18:84:26:13:db:6f:25:
        9c:5d:bb:27:eb:aa:cf:61:6e:24:a8:36:5e:38:77:36:32:b4:
        cb:74:2c:9e:b7:20:b9:df:61:6f:95:be:35:b4:52:ed:82:f6:
        da:ea:be:37:80:2d:0c:dc:c8:c8:58:5f:c7:4a:df:55:38:6d:
        f8:09
-----BEGIN CERTIFICATE-----
MIICiTCCAfICAUcwDQYJKoZIhvcNAQEEBQAwgYMxCzAJBgNVBAYTAlNHMRMwEQYD
VQQIEwpTb21lLVN0YXRlMQ0wCwYDVQQKEwRTVVREMQ0wCwYDVQQLEwRJU1REMRgw
FgYDVQQDEw9MaWFuZyBTaHVhaWxvbmcxJzAlBgkqhkiG9w0BCQEWGGxpYW5nc2h1
YWlsb25nQGdtYWlsLmNvbTAeFw0xNzA0MDcwNDM1MTNaFw0xODA0MDcwNDM1MTNa
MIGVMQswCQYDVQQGEwJTRzESMBAGA1UECAwJU2luZ2Fwb3JlMRIwEAYDVQQHDAlT
aW5nYXBvcmUxDTALBgNVBAoMBFNVVEQxDTALBgNVBAsMBElTVEQxEDAOBgNVBAMM
B1BpbmFyZHkxLjAsBgkqhkiG9w0BCQEWH3BpbmFyZHlfeWFuZ0BteW1haWwuc3V0
ZC5lZHUuc2cwgZ8wDQYJKoZIhvcNAQEBBQADgY0AMIGJAoGBALJMlOyaxhLmvwm9
47QyjZkTQxN0+0/wlp5PsGoYjYDs7dRiaA+15R4onNXuuQjz5Qo0huJNNn8ETRSh
apUdG0UFaOOYeWlsbdtDvPJ0wJZ4l9wJ0m5QMfUociqAkvqA2mRNTILBASCVvgmG
iD3cJ/otLmuUOpUAQ1a5z3kfTBcNAgMBAAEwDQYJKoZIhvcNAQEEBQADgYEAkmnt
C+z8KWQcO2G66SzSY7zRtwcyeDhkIEddJ3250WZRFjThnFyFmH2dHEtEZgDEH5vc
oqlJboJq4nN7W6OlpcEYhCYT228lnF27J+uqz2FuJKg2Xjh3NjK0y3Qsnrcgud9h
b5W+NbRS7YL22uq+N4AtDNzIyFhfx0rfVTht+Ak=
-----END CERTIFICATE-----
